target datalayout = "e-m:e-p270:32:32-p271:32:32-p272:64:64-i64:64-i128:128-f80:128-n8:16:32:64-S128"
target triple = "x86_64-unknown-linux-gnu"

%struct.GeoHashBits = type { i64, i8 }
%struct.redisObject = type { i32, i32, ptr }
%struct.GeoHashRange = type { double, double }
%struct.client = type { i64, i64, ptr, i32, ptr, ptr, ptr, ptr, ptr, i64, i64, i32, ptr, i32, i32, ptr, i64, ptr, ptr, ptr, ptr, i32, i32, i64, ptr, i64, ptr, i64, i64, i64, i32, ptr, i64, i64, i32, i32, i32, i32, i64, i64, ptr, i64, i64, i64, i64, i64, i64, i64, i64, [41 x i8], i32, ptr, i32, i32, %struct.multiState, %struct.blockingState, i64, ptr, ptr, ptr, ptr, ptr, ptr, ptr, ptr, ptr, ptr, ptr, ptr, ptr, ptr, i64, ptr, i64, i32, ptr, ptr, ptr, i64, %struct.listNode, i64, i64, i32, i64, ptr }
%struct.multiState = type { ptr, i32, i32, i32, i64, i32 }
%struct.blockingState = type { i32, i64, i32, ptr, i32, i32, i64, ptr, ptr }
%struct.listNode = type { ptr, ptr, ptr }

@.str.53 = private unnamed_addr constant [33 x i8] c"0123456789bcdefghjkmnpqrstuvwxyz\00", align 1

; Function Attrs: nounwind uwtable
define dso_local i32 @decodeGeohash(double noundef %bits, ptr noundef %xy) #0 {
entry:
  %bits.addr = alloca double, align 8
  %xy.addr = alloca ptr, align 8
  %hash = alloca %struct.GeoHashBits, align 8
  store double %bits, ptr %bits.addr, align 8
  store ptr %xy, ptr %xy.addr, align 8
  %bits1 = getelementptr inbounds %struct.GeoHashBits, ptr %hash, i32 0, i32 0
  %0 = load double, ptr %bits.addr, align 8
  %conv = fptoui double %0 to i64
  store i64 %conv, ptr %bits1, align 8
  %step = getelementptr inbounds %struct.GeoHashBits, ptr %hash, i32 0, i32 1
  store i8 26, ptr %step, align 8
  %1 = load ptr, ptr %xy.addr, align 8
  %2 = getelementptr inbounds { i64, i8 }, ptr %hash, i32 0, i32 0
  %3 = load i64, ptr %2, align 8
  %4 = getelementptr inbounds { i64, i8 }, ptr %hash, i32 0, i32 1
  %5 = load i8, ptr %4, align 8
  %call = call i32 @geohashDecodeToLongLatWGS84(i64 %3, i8 %5, ptr noundef %1)
  ret i32 %call
}

; Function Attrs: nounwind uwtable
define dso_local void @geohashCommand(ptr noundef %c) #0 {
entry:
  %c.addr = alloca ptr, align 8
  %geoalphabet = alloca ptr, align 8
  %j = alloca i32, align 4
  %zobj = alloca ptr, align 8
  %score = alloca double, align 8
  %xy = alloca [2 x double], align 16
  %r = alloca [2 x %struct.GeoHashRange], align 16
  %hash = alloca %struct.GeoHashBits, align 8
  %buf = alloca [12 x i8], align 1
  %i = alloca i32, align 4
  %idx = alloca i32, align 4
  store ptr %c, ptr %c.addr, align 8
  store ptr @.str.53, ptr %geoalphabet, align 8
  %0 = load ptr, ptr %c.addr, align 8
  %db = getelementptr inbounds %struct.client, ptr %0, i32 0, i32 4
  %1 = load ptr, ptr %db, align 8
  %2 = load ptr, ptr %c.addr, align 8
  %argv = getelementptr inbounds %struct.client, ptr %2, i32 0, i32 12
  %3 = load ptr, ptr %argv, align 8
  %arrayidx = getelementptr inbounds ptr, ptr %3, i64 1
  %4 = load ptr, ptr %arrayidx, align 8
  %call = call ptr @lookupKeyRead(ptr noundef %1, ptr noundef %4)
  store ptr %call, ptr %zobj, align 8
  %5 = load ptr, ptr %c.addr, align 8
  %6 = load ptr, ptr %zobj, align 8
  %call1 = call i32 @checkType(ptr noundef %5, ptr noundef %6, i32 noundef 3)
  %tobool = icmp ne i32 %call1, 0
  br i1 %tobool, label %if.then, label %if.end

if.then:                                          ; preds = %entry
  br label %for.end46

if.end:                                           ; preds = %entry
  %7 = load ptr, ptr %c.addr, align 8
  %8 = load ptr, ptr %c.addr, align 8
  %argc = getelementptr inbounds %struct.client, ptr %8, i32 0, i32 11
  %9 = load i32, ptr %argc, align 8
  %sub = sub nsw i32 %9, 2
  %conv = sext i32 %sub to i64
  call void @addReplyArrayLen(ptr noundef %7, i64 noundef %conv)
  store i32 2, ptr %j, align 4
  br label %for.cond

for.cond:                                         ; preds = %for.inc44, %if.end
  %10 = load i32, ptr %j, align 4
  %11 = load ptr, ptr %c.addr, align 8
  %argc2 = getelementptr inbounds %struct.client, ptr %11, i32 0, i32 11
  %12 = load i32, ptr %argc2, align 8
  %cmp = icmp slt i32 %10, %12
  br i1 %cmp, label %for.body, label %for.end46

for.body:                                         ; preds = %for.cond
  %13 = load ptr, ptr %zobj, align 8
  %tobool4 = icmp ne ptr %13, null
  br i1 %tobool4, label %lor.lhs.false, label %if.then10

lor.lhs.false:                                    ; preds = %for.body
  %14 = load ptr, ptr %zobj, align 8
  %15 = load ptr, ptr %c.addr, align 8
  %argv5 = getelementptr inbounds %struct.client, ptr %15, i32 0, i32 12
  %16 = load ptr, ptr %argv5, align 8
  %17 = load i32, ptr %j, align 4
  %idxprom = sext i32 %17 to i64
  %arrayidx6 = getelementptr inbounds ptr, ptr %16, i64 %idxprom
  %18 = load ptr, ptr %arrayidx6, align 8
  %ptr = getelementptr inbounds %struct.redisObject, ptr %18, i32 0, i32 2
  %19 = load ptr, ptr %ptr, align 8
  %call7 = call i32 @zsetScore(ptr noundef %14, ptr noundef %19, ptr noundef %score)
  %cmp8 = icmp eq i32 %call7, -1
  br i1 %cmp8, label %if.then10, label %if.else

if.then10:                                        ; preds = %lor.lhs.false, %for.body
  %20 = load ptr, ptr %c.addr, align 8
  call void @addReplyNull(ptr noundef %20)
  br label %if.end43

if.else:                                          ; preds = %lor.lhs.false
  %21 = load double, ptr %score, align 8
  %arraydecay = getelementptr inbounds [2 x double], ptr %xy, i64 0, i64 0
  %call11 = call i32 @decodeGeohash(double noundef %21, ptr noundef %arraydecay)
  %tobool12 = icmp ne i32 %call11, 0
  br i1 %tobool12, label %if.end14, label %if.then13

if.then13:                                        ; preds = %if.else
  %22 = load ptr, ptr %c.addr, align 8
  call void @addReplyNull(ptr noundef %22)
  br label %for.inc44

if.end14:                                         ; preds = %if.else
  %arrayidx15 = getelementptr inbounds [2 x %struct.GeoHashRange], ptr %r, i64 0, i64 0
  %min = getelementptr inbounds %struct.GeoHashRange, ptr %arrayidx15, i32 0, i32 0
  store double -1.800000e+02, ptr %min, align 16
  %arrayidx16 = getelementptr inbounds [2 x %struct.GeoHashRange], ptr %r, i64 0, i64 0
  %max = getelementptr inbounds %struct.GeoHashRange, ptr %arrayidx16, i32 0, i32 1
  store double 1.800000e+02, ptr %max, align 8
  %arrayidx17 = getelementptr inbounds [2 x %struct.GeoHashRange], ptr %r, i64 0, i64 1
  %min18 = getelementptr inbounds %struct.GeoHashRange, ptr %arrayidx17, i32 0, i32 0
  store double -9.000000e+01, ptr %min18, align 16
  %arrayidx19 = getelementptr inbounds [2 x %struct.GeoHashRange], ptr %r, i64 0, i64 1
  %max20 = getelementptr inbounds %struct.GeoHashRange, ptr %arrayidx19, i32 0, i32 1
  store double 9.000000e+01, ptr %max20, align 8
  %arrayidx21 = getelementptr inbounds [2 x %struct.GeoHashRange], ptr %r, i64 0, i64 0
  %arrayidx22 = getelementptr inbounds [2 x %struct.GeoHashRange], ptr %r, i64 0, i64 1
  %arrayidx23 = getelementptr inbounds [2 x double], ptr %xy, i64 0, i64 0
  %23 = load double, ptr %arrayidx23, align 16
  %arrayidx24 = getelementptr inbounds [2 x double], ptr %xy, i64 0, i64 1
  %24 = load double, ptr %arrayidx24, align 8
  %call25 = call i32 @geohashEncode(ptr noundef %arrayidx21, ptr noundef %arrayidx22, double noundef %23, double noundef %24, i8 noundef zeroext 26, ptr noundef %hash)
  store i32 0, ptr %i, align 4
  br label %for.cond26

for.cond26:                                       ; preds = %for.inc, %if.end14
  %25 = load i32, ptr %i, align 4
  %cmp27 = icmp slt i32 %25, 11
  br i1 %cmp27, label %for.body29, label %for.end

for.body29:                                       ; preds = %for.cond26
  %26 = load i32, ptr %i, align 4
  %cmp30 = icmp eq i32 %26, 10
  br i1 %cmp30, label %if.then32, label %if.else33

if.then32:                                        ; preds = %for.body29
  store i32 0, ptr %idx, align 4
  br label %if.end36

if.else33:                                        ; preds = %for.body29
  %bits = getelementptr inbounds %struct.GeoHashBits, ptr %hash, i32 0, i32 0
  %27 = load i64, ptr %bits, align 8
  %28 = load i32, ptr %i, align 4
  %add = add nsw i32 %28, 1
  %mul = mul nsw i32 %add, 5
  %sub34 = sub nsw i32 52, %mul
  %sh_prom = zext i32 %sub34 to i64
  %shr = lshr i64 %27, %sh_prom
  %and = and i64 %shr, 31
  %conv35 = trunc i64 %and to i32
  store i32 %conv35, ptr %idx, align 4
  br label %if.end36

if.end36:                                         ; preds = %if.else33, %if.then32
  %29 = load ptr, ptr %geoalphabet, align 8
  %30 = load i32, ptr %idx, align 4
  %idxprom37 = sext i32 %30 to i64
  %arrayidx38 = getelementptr inbounds i8, ptr %29, i64 %idxprom37
  %31 = load i8, ptr %arrayidx38, align 1
  %32 = load i32, ptr %i, align 4
  %idxprom39 = sext i32 %32 to i64
  %arrayidx40 = getelementptr inbounds [12 x i8], ptr %buf, i64 0, i64 %idxprom39
  store i8 %31, ptr %arrayidx40, align 1
  br label %for.inc

for.inc:                                          ; preds = %if.end36
  %33 = load i32, ptr %i, align 4
  %inc = add nsw i32 %33, 1
  store i32 %inc, ptr %i, align 4
  br label %for.cond26, !llvm.loop !18

for.end:                                          ; preds = %for.cond26
  %arrayidx41 = getelementptr inbounds [12 x i8], ptr %buf, i64 0, i64 11
  store i8 0, ptr %arrayidx41, align 1
  %34 = load ptr, ptr %c.addr, align 8
  %arraydecay42 = getelementptr inbounds [12 x i8], ptr %buf, i64 0, i64 0
  call void @addReplyBulkCBuffer(ptr noundef %34, ptr noundef %arraydecay42, i64 noundef 11)
  br label %if.end43

if.end43:                                         ; preds = %for.end, %if.then10
  br label %for.inc44

for.inc44:                                        ; preds = %if.end43, %if.then13
  %35 = load i32, ptr %j, align 4
  %inc45 = add nsw i32 %35, 1
  store i32 %inc45, ptr %j, align 4
  br label %for.cond, !llvm.loop !19

for.end46:                                        ; preds = %for.cond, %if.then
  ret void
}