; Function Attrs: nounwind uwtable
define dso_local void @geohashCommand(ptr noundef %c) local_unnamed_addr #0 {
entry:
  %score = alloca double, align 8
  %xy = alloca [2 x double], align 16
  %r = alloca [2 x %struct.GeoHashRange], align 16
  %hash = alloca %struct.GeoHashBits, align 8
  %buf = alloca [12 x i8], align 1
  %db = getelementptr inbounds i8, ptr %c, i64 32
  %0 = load ptr, ptr %db, align 8
  %argv = getelementptr inbounds i8, ptr %c, i64 96
  %1 = load ptr, ptr %argv, align 8
  %arrayidx = getelementptr inbounds i8, ptr %1, i64 8
  %2 = load ptr, ptr %arrayidx, align 8
  %call = tail call ptr @lookupKeyRead(ptr noundef %0, ptr noundef %2) #14
  %call1 = tail call i32 @checkType(ptr noundef %c, ptr noundef %call, i32 noundef 3) #14
  %tobool.not = icmp eq i32 %call1, 0
  br i1 %tobool.not, label %if.end, label %for.end46

if.end:                                           ; preds = %entry
  %argc = getelementptr inbounds i8, ptr %c, i64 88
  %3 = load i32, ptr %argc, align 8
  %sub = add nsw i32 %3, -2
  %conv = sext i32 %sub to i64
  tail call void @addReplyArrayLen(ptr noundef nonnull %c, i64 noundef %conv) #14
  %4 = load i32, ptr %argc, align 8
  %cmp19 = icmp sgt i32 %4, 2
  br i1 %cmp19, label %for.body.lr.ph, label %for.end46

for.body.lr.ph:                                   ; preds = %if.end
  %tobool4.not = icmp eq ptr %call, null
  %arrayidx17 = getelementptr inbounds i8, ptr %r, i64 16
  %arrayidx24 = getelementptr inbounds i8, ptr %xy, i64 8
  %arrayidx41 = getelementptr inbounds i8, ptr %buf, i64 11
  br i1 %tobool4.not, label %for.body.us, label %for.body

for.body.us:                                      ; preds = %for.body.lr.ph, %for.body.us
  %j.020.us = phi i32 [ %inc45.us, %for.body.us ], [ 2, %for.body.lr.ph ]
  tail call void @addReplyNull(ptr noundef nonnull %c) #14
  %inc45.us = add nuw nsw i32 %j.020.us, 1
  %5 = load i32, ptr %argc, align 8
  %cmp.us = icmp slt i32 %inc45.us, %5
  br i1 %cmp.us, label %for.body.us, label %for.end46, !llvm.loop !19

for.body:                                         ; preds = %for.body.lr.ph, %for.inc44
  %indvars.iv26 = phi i64 [ %indvars.iv.next27, %for.inc44 ], [ 2, %for.body.lr.ph ]
  %6 = load ptr, ptr %argv, align 8
  %arrayidx6 = getelementptr inbounds ptr, ptr %6, i64 %indvars.iv26
  %7 = load ptr, ptr %arrayidx6, align 8
  %ptr = getelementptr inbounds i8, ptr %7, i64 8
  %8 = load ptr, ptr %ptr, align 8
  %call7 = call i32 @zsetScore(ptr noundef nonnull %call, ptr noundef %8, ptr noundef nonnull %score) #14
  %cmp8 = icmp eq i32 %call7, -1
  br i1 %cmp8, label %if.then10, label %if.else

if.then10:                                        ; preds = %for.body
  call void @addReplyNull(ptr noundef nonnull %c) #14
  br label %for.inc44

if.else:                                          ; preds = %for.body
  %9 = load double, ptr %score, align 8
  %conv.i = fptoui double %9 to i64
  %call.i = call i32 @geohashDecodeToLongLatWGS84(i64 %conv.i, i8 26, ptr noundef nonnull %xy) #14
  %tobool12.not = icmp eq i32 %call.i, 0
  br i1 %tobool12.not, label %if.then13, label %if.end14

if.then13:                                        ; preds = %if.else
  call void @addReplyNull(ptr noundef nonnull %c) #14
  br label %for.inc44

if.end14:                                         ; preds = %if.else
  store <2 x double> <double -1.800000e+02, double 1.800000e+02>, ptr %r, align 16
  store <2 x double> <double -9.000000e+01, double 9.000000e+01>, ptr %arrayidx17, align 16
  %10 = load double, ptr %xy, align 16
  %11 = load double, ptr %arrayidx24, align 8
  %call25 = call i32 @geohashEncode(ptr noundef nonnull %r, ptr noundef nonnull %arrayidx17, double noundef %10, double noundef %11, i8 noundef zeroext 26, ptr noundef nonnull %hash) #14
  %12 = load i64, ptr %hash, align 8
  br label %for.body29

for.body29:                                       ; preds = %if.end14, %for.body29
  %indvars.iv = phi i64 [ 0, %if.end14 ], [ %indvars.iv.next, %for.body29 ]
  %cmp30 = icmp eq i64 %indvars.iv, 10
  %13 = mul nsw i64 %indvars.iv, -5
  %14 = add nsw i64 %13, 47
  %shr = lshr i64 %12, %14
  %conv35 = and i64 %shr, 31
  %idx.0 = select i1 %cmp30, i64 0, i64 %conv35
  %arrayidx38 = getelementptr inbounds i8, ptr @.str.53, i64 %idx.0
  %15 = load i8, ptr %arrayidx38, align 1
  %arrayidx40 = getelementptr inbounds [12 x i8], ptr %buf, i64 0, i64 %indvars.iv
  store i8 %15, ptr %arrayidx40, align 1
  %indvars.iv.next = add nuw nsw i64 %indvars.iv, 1
  %exitcond.not = icmp eq i64 %indvars.iv.next, 11
  br i1 %exitcond.not, label %for.end, label %for.body29, !llvm.loop !20

for.end:                                          ; preds = %for.body29
  store i8 0, ptr %arrayidx41, align 1
  call void @addReplyBulkCBuffer(ptr noundef %c, ptr noundef nonnull %buf, i64 noundef 11) #14
  br label %for.inc44

for.inc44:                                        ; preds = %if.then10, %for.end, %if.then13
  %indvars.iv.next27 = add nuw nsw i64 %indvars.iv26, 1
  %16 = load i32, ptr %argc, align 8
  %17 = sext i32 %16 to i64
  %cmp = icmp slt i64 %indvars.iv.next27, %17
  br i1 %cmp, label %for.body, label %for.end46, !llvm.loop !19

for.end46:                                        ; preds = %for.inc44, %for.body.us, %if.end, %entry
  ret void
}